target datalayout = "e-m:e-p270:32:32-p271:32:32-p272:64:64-i64:64-i128:128-f80:128-n8:16:32:64-S128"
target triple = "x86_64-pc-linux-gnu"

%struct.cbs_st = type { ptr, i64 }

; Function Attrs: nounwind uwtable
define hidden void @CBS_init(ptr noundef %0, ptr noundef %1, i64 noundef %2) #0 {
  %4 = alloca ptr, align 8
  %5 = alloca ptr, align 8
  %6 = alloca i64, align 8
  store ptr %0, ptr %4, align 8, !tbaa !6
  store ptr %1, ptr %5, align 8, !tbaa !11
  store i64 %2, ptr %6, align 8, !tbaa !13
  %7 = load ptr, ptr %5, align 8, !tbaa !11
  %8 = load ptr, ptr %4, align 8, !tbaa !6
  %9 = getelementptr inbounds nuw %struct.cbs_st, ptr %8, i32 0, i32 0
  store ptr %7, ptr %9, align 8, !tbaa !15
  %10 = load i64, ptr %6, align 8, !tbaa !13
  %11 = load ptr, ptr %4, align 8, !tbaa !6
  %12 = getelementptr inbounds nuw %struct.cbs_st, ptr %11, i32 0, i32 1
  store i64 %10, ptr %12, align 8, !tbaa !17
  ret void
}

; Function Attrs: nounwind uwtable
define internal i32 @cbs_get(ptr noundef %0, ptr noundef %1, i64 noundef %2) #0 {
  %4 = alloca i32, align 4
  %5 = alloca ptr, align 8
  %6 = alloca ptr, align 8
  %7 = alloca i64, align 8
  store ptr %0, ptr %5, align 8, !tbaa !6
  store ptr %1, ptr %6, align 8, !tbaa !18
  store i64 %2, ptr %7, align 8, !tbaa !13
  %8 = load ptr, ptr %5, align 8, !tbaa !6
  %9 = getelementptr inbounds nuw %struct.cbs_st, ptr %8, i32 0, i32 1
  %10 = load i64, ptr %9, align 8, !tbaa !17
  %11 = load i64, ptr %7, align 8, !tbaa !13
  %12 = icmp ult i64 %10, %11
  br i1 %12, label %13, label %14

13:                                               ; preds = %3
  store i32 0, ptr %4, align 4
  br label %29

14:                                               ; preds = %3
  %15 = load ptr, ptr %5, align 8, !tbaa !6
  %16 = getelementptr inbounds nuw %struct.cbs_st, ptr %15, i32 0, i32 0
  %17 = load ptr, ptr %16, align 8, !tbaa !15
  %18 = load ptr, ptr %6, align 8, !tbaa !18
  store ptr %17, ptr %18, align 8, !tbaa !11
  %19 = load i64, ptr %7, align 8, !tbaa !13
  %20 = load ptr, ptr %5, align 8, !tbaa !6
  %21 = getelementptr inbounds nuw %struct.cbs_st, ptr %20, i32 0, i32 0
  %22 = load ptr, ptr %21, align 8, !tbaa !15
  %23 = getelementptr inbounds nuw i8, ptr %22, i64 %19
  store ptr %23, ptr %21, align 8, !tbaa !15
  %24 = load i64, ptr %7, align 8, !tbaa !13
  %25 = load ptr, ptr %5, align 8, !tbaa !6
  %26 = getelementptr inbounds nuw %struct.cbs_st, ptr %25, i32 0, i32 1
  %27 = load i64, ptr %26, align 8, !tbaa !17
  %28 = sub i64 %27, %24
  store i64 %28, ptr %26, align 8, !tbaa !17
  store i32 1, ptr %4, align 4
  br label %29

29:                                               ; preds = %14, %13
  %30 = load i32, ptr %4, align 4
  ret i32 %30
}

; Function Attrs: nounwind uwtable
define hidden i32 @CBS_get_bytes(ptr noundef %0, ptr noundef %1, i64 noundef %2) #0 {
  %4 = alloca i32, align 4
  %5 = alloca ptr, align 8
  %6 = alloca ptr, align 8
  %7 = alloca i64, align 8
  %8 = alloca ptr, align 8
  %9 = alloca i32, align 4
  store ptr %0, ptr %5, align 8, !tbaa !6
  store ptr %1, ptr %6, align 8, !tbaa !6
  store i64 %2, ptr %7, align 8, !tbaa !13
  call void @llvm.lifetime.start.p0(i64 8, ptr %8) #6
  %10 = load ptr, ptr %5, align 8, !tbaa !6
  %11 = load i64, ptr %7, align 8, !tbaa !13
  %12 = call i32 @cbs_get(ptr noundef %10, ptr noundef %8, i64 noundef %11)
  %13 = icmp ne i32 %12, 0
  br i1 %13, label %15, label %14

14:                                               ; preds = %3
  store i32 0, ptr %4, align 4
  store i32 1, ptr %9, align 4
  br label %19

15:                                               ; preds = %3
  %16 = load ptr, ptr %6, align 8, !tbaa !6
  %17 = load ptr, ptr %8, align 8, !tbaa !11
  %18 = load i64, ptr %7, align 8, !tbaa !13
  call void @CBS_init(ptr noundef %16, ptr noundef %17, i64 noundef %18)
  store i32 1, ptr %4, align 4
  store i32 1, ptr %9, align 4
  br label %19

19:                                               ; preds = %15, %14
  call void @llvm.lifetime.end.p0(i64 8, ptr %8) #6
  %20 = load i32, ptr %4, align 4
  ret i32 %20
}

; Function Attrs: nounwind uwtable
define internal i32 @cbs_get_u(ptr noundef %0, ptr noundef %1, i64 noundef %2) #0 {
  %4 = alloca i32, align 4
  %5 = alloca ptr, align 8
  %6 = alloca ptr, align 8
  %7 = alloca i64, align 8
  %8 = alloca i32, align 4
  %9 = alloca i64, align 8
  %10 = alloca ptr, align 8
  %11 = alloca i32, align 4
  store ptr %0, ptr %5, align 8, !tbaa !6
  store ptr %1, ptr %6, align 8, !tbaa !29
  store i64 %2, ptr %7, align 8, !tbaa !13
  call void @llvm.lifetime.start.p0(i64 4, ptr %8) #6
  store i32 0, ptr %8, align 4, !tbaa !25
  call void @llvm.lifetime.start.p0(i64 8, ptr %9) #6
  call void @llvm.lifetime.start.p0(i64 8, ptr %10) #6
  %12 = load ptr, ptr %5, align 8, !tbaa !6
  %13 = load i64, ptr %7, align 8, !tbaa !13
  %14 = call i32 @cbs_get(ptr noundef %12, ptr noundef %10, i64 noundef %13)
  %15 = icmp ne i32 %14, 0
  br i1 %15, label %17, label %16

16:                                               ; preds = %3
  store i32 0, ptr %4, align 4
  store i32 1, ptr %11, align 4
  br label %38

17:                                               ; preds = %3
  store i64 0, ptr %9, align 8, !tbaa !13
  br label %18

18:                                               ; preds = %32, %17
  %19 = load i64, ptr %9, align 8, !tbaa !13
  %20 = load i64, ptr %7, align 8, !tbaa !13
  %21 = icmp ult i64 %19, %20
  br i1 %21, label %22, label %35

22:                                               ; preds = %18
  %23 = load i32, ptr %8, align 4, !tbaa !25
  %24 = shl i32 %23, 8
  store i32 %24, ptr %8, align 4, !tbaa !25
  %25 = load ptr, ptr %10, align 8, !tbaa !11
  %26 = load i64, ptr %9, align 8, !tbaa !13
  %27 = getelementptr inbounds nuw i8, ptr %25, i64 %26
  %28 = load i8, ptr %27, align 1, !tbaa !22
  %29 = zext i8 %28 to i32
  %30 = load i32, ptr %8, align 4, !tbaa !25
  %31 = or i32 %30, %29
  store i32 %31, ptr %8, align 4, !tbaa !25
  br label %32

32:                                               ; preds = %22
  %33 = load i64, ptr %9, align 8, !tbaa !13
  %34 = add i64 %33, 1
  store i64 %34, ptr %9, align 8, !tbaa !13
  br label %18, !llvm.loop !31

35:                                               ; preds = %18
  %36 = load i32, ptr %8, align 4, !tbaa !25
  %37 = load ptr, ptr %6, align 8, !tbaa !29
  store i32 %36, ptr %37, align 4, !tbaa !25
  store i32 1, ptr %4, align 4
  store i32 1, ptr %11, align 4
  br label %38

38:                                               ; preds = %35, %16
  call void @llvm.lifetime.end.p0(i64 8, ptr %10) #6
  call void @llvm.lifetime.end.p0(i64 8, ptr %9) #6
  call void @llvm.lifetime.end.p0(i64 4, ptr %8) #6
  %39 = load i32, ptr %4, align 4
  ret i32 %39
}

; Function Attrs: nounwind uwtable
define internal i32 @cbs_get_length_prefixed(ptr noundef %0, ptr noundef %1, i64 noundef %2) #0 {
  %4 = alloca i32, align 4
  %5 = alloca ptr, align 8
  %6 = alloca ptr, align 8
  %7 = alloca i64, align 8
  %8 = alloca i32, align 4
  %9 = alloca i32, align 4
  store ptr %0, ptr %5, align 8, !tbaa !6
  store ptr %1, ptr %6, align 8, !tbaa !6
  store i64 %2, ptr %7, align 8, !tbaa !13
  call void @llvm.lifetime.start.p0(i64 4, ptr %8) #6
  %10 = load ptr, ptr %5, align 8, !tbaa !6
  %11 = load i64, ptr %7, align 8, !tbaa !13
  %12 = call i32 @cbs_get_u(ptr noundef %10, ptr noundef %8, i64 noundef %11)
  %13 = icmp ne i32 %12, 0
  br i1 %13, label %15, label %14

14:                                               ; preds = %3
  store i32 0, ptr %4, align 4
  store i32 1, ptr %9, align 4
  br label %21

15:                                               ; preds = %3
  %16 = load ptr, ptr %5, align 8, !tbaa !6
  %17 = load ptr, ptr %6, align 8, !tbaa !6
  %18 = load i32, ptr %8, align 4, !tbaa !25
  %19 = zext i32 %18 to i64
  %20 = call i32 @CBS_get_bytes(ptr noundef %16, ptr noundef %17, i64 noundef %19)
  store i32 %20, ptr %4, align 4
  store i32 1, ptr %9, align 4
  br label %21

21:                                               ; preds = %15, %14
  call void @llvm.lifetime.end.p0(i64 4, ptr %8) #6
  %22 = load i32, ptr %4, align 4
  ret i32 %22
}

; Function Attrs: nounwind uwtable
define hidden i32 @CBS_get_u16_length_prefixed(ptr noundef %0, ptr noundef %1) #0 {
  %3 = alloca ptr, align 8
  %4 = alloca ptr, align 8
  store ptr %0, ptr %3, align 8, !tbaa !6
  store ptr %1, ptr %4, align 8, !tbaa !6
  %5 = load ptr, ptr %3, align 8, !tbaa !6
  %6 = load ptr, ptr %4, align 8, !tbaa !6
  %7 = call i32 @cbs_get_length_prefixed(ptr noundef %5, ptr noundef %6, i64 noundef 2)
  ret i32 %7
}