; Function Attrs: nofree norecurse nosync nounwind memory(read, argmem: readwrite, inaccessiblemem: none) uwtable
define hidden range(i32 0, 2) i32 @CBS_get_u16_length_prefixed(ptr noundef captures(none) %0, ptr noundef writeonly captures(none) %1) local_unnamed_addr #10 {
  %3 = getelementptr inbounds nuw i8, ptr %0, i64 8
  %4 = load i64, ptr %3, align 8, !tbaa !13
  %5 = icmp ult i64 %4, 2
  br i1 %5, label %cbs_get_length_prefixed.exit, label %cbs_get.exit.i.i

cbs_get.exit.i.i:                                 ; preds = %2
  %6 = load ptr, ptr %0, align 8, !tbaa !6
  %7 = getelementptr inbounds nuw i8, ptr %6, i64 2
  store ptr %7, ptr %0, align 8, !tbaa !6
  %8 = add i64 %4, -2
  store i64 %8, ptr %3, align 8, !tbaa !13
  br label %9

9:                                                ; preds = %9, %cbs_get.exit.i.i
  %.017.i.i = phi i64 [ 0, %cbs_get.exit.i.i ], [ %15, %9 ]
  %.01016.i.i = phi i32 [ 0, %cbs_get.exit.i.i ], [ %14, %9 ]
  %10 = shl i32 %.01016.i.i, 8
  %11 = getelementptr inbounds nuw i8, ptr %6, i64 %.017.i.i
  %12 = load i8, ptr %11, align 1, !tbaa !16
  %13 = zext i8 %12 to i32
  %14 = or disjoint i32 %10, %13
  %15 = add nuw nsw i64 %.017.i.i, 1
  %exitcond.not.i.i = icmp eq i64 %15, 2
  br i1 %exitcond.not.i.i, label %cbs_get_u.exit.i, label %9, !llvm.loop !17

cbs_get_u.exit.i:                                 ; preds = %9
  %16 = zext i32 %14 to i64
  %17 = icmp ult i64 %8, %16
  br i1 %17, label %cbs_get_length_prefixed.exit, label %18

18:                                               ; preds = %cbs_get_u.exit.i
  %19 = getelementptr inbounds nuw i8, ptr %7, i64 %16
  store ptr %19, ptr %0, align 8, !tbaa !6
  %20 = sub nuw i64 %8, %16
  store i64 %20, ptr %3, align 8, !tbaa !13
  store ptr %7, ptr %1, align 8, !tbaa !6
  %21 = getelementptr inbounds nuw i8, ptr %1, i64 8
  store i64 %16, ptr %21, align 8, !tbaa !13
  br label %cbs_get_length_prefixed.exit

cbs_get_length_prefixed.exit:                     ; preds = %2, %cbs_get_u.exit.i, %18
  %.0.i = phi i32 [ 1, %18 ], [ 0, %cbs_get_u.exit.i ], [ 0, %2 ]
  ret i32 %.0.i
}